target datalayout = "e-m:e-p270:32:32-p271:32:32-p272:64:64-i64:64-i128:128-f80:128-n8:16:32:64-S128"
target triple = "x86_64-pc-linux-gnu"

%struct._zval_struct = type { %union._zend_value, %union.anon, %union.anon.2 }
%union._zend_value = type { i64 }
%union.anon = type { i32 }
%union.anon.2 = type { i32 }
%struct._zend_refcounted_h = type { i32, %union.anon.4 }
%union.anon.4 = type { i32 }
%struct._zend_execute_data = type { ptr, ptr, ptr, ptr, %struct._zval_struct, ptr, ptr, ptr, ptr }
%struct._zend_string = type { %struct._zend_refcounted_h, i64, i64, [1 x i8] }
%struct._zend_reference = type { %struct._zend_refcounted_h, %struct._zval_struct, %union.zend_property_info_source_list }
%union.zend_property_info_source_list = type { ptr }

; Function Attrs: nounwind uwtable
define hidden void @zif_is_callable(ptr noundef %0, ptr noundef %1) #0 {
  %3 = alloca ptr, align 8
  %4 = alloca ptr, align 8
  %5 = alloca ptr, align 8
  %6 = alloca i1, align 1
  %7 = alloca ptr, align 8
  %8 = alloca ptr, align 8
  %9 = alloca ptr, align 8
  %10 = alloca i8, align 1
  %11 = alloca i32, align 4
  %12 = alloca i8, align 1
  %13 = alloca ptr, align 8
  %14 = alloca ptr, align 8
  %15 = alloca ptr, align 8
  %16 = alloca i8, align 1
  %17 = alloca i32, align 4
  %18 = alloca i32, align 4
  %19 = alloca ptr, align 8
  %20 = alloca ptr, align 8
  %21 = alloca ptr, align 8
  %22 = alloca ptr, align 8
  %23 = alloca i8, align 1
  %24 = alloca ptr, align 8
  %25 = alloca ptr, align 8
  %26 = alloca i8, align 1
  %27 = alloca ptr, align 8
  %28 = alloca ptr, align 8
  %29 = alloca ptr, align 8
  %30 = alloca ptr, align 8
  %31 = alloca ptr, align 8
  %32 = alloca i8, align 1
  %33 = alloca i8, align 1
  %34 = alloca i32, align 4
  %35 = alloca i32, align 4
  %36 = alloca i32, align 4
  %37 = alloca i32, align 4
  %38 = alloca i32, align 4
  %39 = alloca i32, align 4
  %40 = alloca ptr, align 8
  %41 = alloca ptr, align 8
  %42 = alloca i32, align 4
  %43 = alloca ptr, align 8
  %44 = alloca i8, align 1
  %45 = alloca i8, align 1
  %46 = alloca i32, align 4
  %47 = alloca ptr, align 8
  %48 = alloca ptr, align 8
  %49 = alloca ptr, align 8
  %50 = alloca ptr, align 8
  store ptr %0, ptr %27, align 8
  store ptr %1, ptr %28, align 8
  store ptr null, ptr %30, align 8
  store i8 0, ptr %33, align 1
  store i32 0, ptr %34, align 4
  br label %51

51:                                               ; preds = %2
  store i32 0, ptr %35, align 4
  store i32 1, ptr %36, align 4
  store i32 3, ptr %37, align 4
  %52 = load ptr, ptr %27, align 8
  %53 = getelementptr inbounds %struct._zend_execute_data, ptr %52, i32 0, i32 4
  %54 = getelementptr inbounds %struct._zval_struct, ptr %53, i32 0, i32 2
  %55 = load i32, ptr %54, align 4
  store i32 %55, ptr %38, align 4
  store i32 0, ptr %39, align 4
  store ptr null, ptr %41, align 8
  store i32 0, ptr %42, align 4
  store ptr null, ptr %43, align 8
  store i8 0, ptr %44, align 1
  store i8 0, ptr %45, align 1
  store i32 0, ptr %46, align 4
  br label %56

56:                                               ; preds = %51
  %57 = load i32, ptr %38, align 4
  %58 = load i32, ptr %36, align 4
  %59 = icmp ult i32 %57, %58
  %60 = xor i1 %59, true
  %61 = xor i1 %60, true
  %62 = zext i1 %61 to i32
  %63 = sext i32 %62 to i64
  %64 = icmp ne i64 %63, 0
  br i1 %64, label %74, label %65

65:                                               ; preds = %56
  %66 = load i32, ptr %38, align 4
  %67 = load i32, ptr %37, align 4
  %68 = icmp ugt i32 %66, %67
  %69 = xor i1 %68, true
  %70 = xor i1 %69, true
  %71 = zext i1 %70 to i32
  %72 = sext i32 %71 to i64
  %73 = icmp ne i64 %72, 0
  br i1 %73, label %74, label %77

74:                                               ; preds = %65, %56
  %75 = load i32, ptr %36, align 4
  %76 = load i32, ptr %37, align 4
  call void @zend_wrong_parameters_count_error(i32 noundef %75, i32 noundef %76)
  store i32 1, ptr %46, align 4
  br label %306

77:                                               ; preds = %65
  %78 = load ptr, ptr %27, align 8
  %79 = getelementptr inbounds %struct._zval_struct, ptr %78, i64 4
  store ptr %79, ptr %40, align 8
  %80 = load i32, ptr %39, align 4
  %81 = add i32 %80, 1
  store i32 %81, ptr %39, align 4
  %82 = load i32, ptr %39, align 4
  %83 = load i32, ptr %36, align 4
  %84 = icmp ule i32 %82, %83
  br i1 %84, label %90, label %85

85:                                               ; preds = %77
  %86 = load i8, ptr %45, align 1
  %87 = trunc i8 %86 to i1
  %88 = zext i1 %87 to i32
  %89 = icmp eq i32 %88, 1
  br label %90

90:                                               ; preds = %85, %77
  %91 = phi i1 [ true, %77 ], [ %89, %85 ]
  call void @llvm.assume(i1 %91)
  %92 = load i32, ptr %39, align 4
  %93 = load i32, ptr %36, align 4
  %94 = icmp ugt i32 %92, %93
  br i1 %94, label %100, label %95

95:                                               ; preds = %90
  %96 = load i8, ptr %45, align 1
  %97 = trunc i8 %96 to i1
  %98 = zext i1 %97 to i32
  %99 = icmp eq i32 %98, 0
  br label %100

100:                                              ; preds = %95, %90
  %101 = phi i1 [ true, %90 ], [ %99, %95 ]
  call void @llvm.assume(i1 %101)
  %102 = load i8, ptr %45, align 1
  %103 = trunc i8 %102 to i1
  br i1 %103, label %104, label %115

104:                                              ; preds = %100
  %105 = load i32, ptr %39, align 4
  %106 = load i32, ptr %38, align 4
  %107 = icmp ugt i32 %105, %106
  %108 = xor i1 %107, true
  %109 = xor i1 %108, true
  %110 = zext i1 %109 to i32
  %111 = sext i32 %110 to i64
  %112 = icmp ne i64 %111, 0
  br i1 %112, label %113, label %114

113:                                              ; preds = %104
  br label %306

114:                                              ; preds = %104
  br label %115

115:                                              ; preds = %114, %100
  %116 = load ptr, ptr %40, align 8
  %117 = getelementptr inbounds %struct._zval_struct, ptr %116, i32 1
  store ptr %117, ptr %40, align 8
  %118 = load ptr, ptr %40, align 8
  store ptr %118, ptr %41, align 8
  %119 = load ptr, ptr %41, align 8
  store ptr %119, ptr %21, align 8
  store ptr %29, ptr %22, align 8
  store i8 0, ptr %23, align 1
  %120 = load i8, ptr %23, align 1
  %121 = trunc i8 %120 to i1
  br i1 %121, label %122, label %130

122:                                              ; preds = %115
  %123 = load ptr, ptr %21, align 8
  store ptr %123, ptr %20, align 8
  %124 = load ptr, ptr %20, align 8
  %125 = getelementptr inbounds %struct._zval_struct, ptr %124, i32 0, i32 1
  %126 = load i8, ptr %125, align 8
  %127 = zext i8 %126 to i32
  %128 = icmp eq i32 %127, 1
  br i1 %128, label %129, label %130

129:                                              ; preds = %122
  br label %132

130:                                              ; preds = %122, %115
  %131 = load ptr, ptr %21, align 8
  br label %132

132:                                              ; preds = %130, %129
  %133 = phi ptr [ null, %129 ], [ %131, %130 ]
  %134 = load ptr, ptr %22, align 8
  store ptr %133, ptr %134, align 8
  store i8 1, ptr %45, align 1
  %135 = load i32, ptr %39, align 4
  %136 = add i32 %135, 1
  store i32 %136, ptr %39, align 4
  %137 = load i32, ptr %39, align 4
  %138 = load i32, ptr %36, align 4
  %139 = icmp ule i32 %137, %138
  br i1 %139, label %145, label %140

140:                                              ; preds = %132
  %141 = load i8, ptr %45, align 1
  %142 = trunc i8 %141 to i1
  %143 = zext i1 %142 to i32
  %144 = icmp eq i32 %143, 1
  br label %145

145:                                              ; preds = %140, %132
  %146 = phi i1 [ true, %132 ], [ %144, %140 ]
  call void @llvm.assume(i1 %146)
  %147 = load i32, ptr %39, align 4
  %148 = load i32, ptr %36, align 4
  %149 = icmp ugt i32 %147, %148
  br i1 %149, label %155, label %150

150:                                              ; preds = %145
  %151 = load i8, ptr %45, align 1
  %152 = trunc i8 %151 to i1
  %153 = zext i1 %152 to i32
  %154 = icmp eq i32 %153, 0
  br label %155

155:                                              ; preds = %150, %145
  %156 = phi i1 [ true, %145 ], [ %154, %150 ]
  call void @llvm.assume(i1 %156)
  %157 = load i8, ptr %45, align 1
  %158 = trunc i8 %157 to i1
  br i1 %158, label %159, label %170

159:                                              ; preds = %155
  %160 = load i32, ptr %39, align 4
  %161 = load i32, ptr %38, align 4
  %162 = icmp ugt i32 %160, %161
  %163 = xor i1 %162, true
  %164 = xor i1 %163, true
  %165 = zext i1 %164 to i32
  %166 = sext i32 %165 to i64
  %167 = icmp ne i64 %166, 0
  br i1 %167, label %168, label %169

168:                                              ; preds = %159
  br label %306

169:                                              ; preds = %159
  br label %170

170:                                              ; preds = %169, %155
  %171 = load ptr, ptr %40, align 8
  %172 = getelementptr inbounds %struct._zval_struct, ptr %171, i32 1
  store ptr %172, ptr %40, align 8
  %173 = load ptr, ptr %40, align 8
  store ptr %173, ptr %41, align 8
  %174 = load ptr, ptr %41, align 8
  %175 = load i32, ptr %39, align 4
  store ptr %174, ptr %13, align 8
  store ptr %33, ptr %14, align 8
  store ptr %44, ptr %15, align 8
  store i8 0, ptr %16, align 1
  store i32 %175, ptr %17, align 4
  %176 = load ptr, ptr %13, align 8
  %177 = load ptr, ptr %14, align 8
  %178 = load ptr, ptr %15, align 8
  %179 = load i8, ptr %16, align 1
  %180 = trunc i8 %179 to i1
  %181 = load i32, ptr %17, align 4
  store ptr %176, ptr %7, align 8
  store ptr %177, ptr %8, align 8
  store ptr %178, ptr %9, align 8
  %182 = zext i1 %180 to i8
  store i8 %182, ptr %10, align 1
  store i32 %181, ptr %11, align 4
  store i8 0, ptr %12, align 1
  %183 = load i8, ptr %10, align 1
  %184 = trunc i8 %183 to i1
  br i1 %184, label %185, label %187

185:                                              ; preds = %170
  %186 = load ptr, ptr %9, align 8
  store i8 0, ptr %186, align 1
  br label %187

187:                                              ; preds = %185, %170
  %188 = load ptr, ptr %7, align 8
  store ptr %188, ptr %3, align 8
  %189 = load ptr, ptr %3, align 8
  %190 = getelementptr inbounds %struct._zval_struct, ptr %189, i32 0, i32 1
  %191 = load i8, ptr %190, align 8
  %192 = zext i8 %191 to i32
  %193 = icmp eq i32 %192, 3
  br i1 %193, label %194, label %196

194:                                              ; preds = %187
  %195 = load ptr, ptr %8, align 8
  store i8 1, ptr %195, align 1
  br label %232

196:                                              ; preds = %187
  %197 = load ptr, ptr %7, align 8
  store ptr %197, ptr %4, align 8
  %198 = load ptr, ptr %4, align 8
  %199 = getelementptr inbounds %struct._zval_struct, ptr %198, i32 0, i32 1
  %200 = load i8, ptr %199, align 8
  %201 = zext i8 %200 to i32
  %202 = icmp eq i32 %201, 2
  br i1 %202, label %203, label %205

203:                                              ; preds = %196
  %204 = load ptr, ptr %8, align 8
  store i8 0, ptr %204, align 1
  br label %231

205:                                              ; preds = %196
  %206 = load i8, ptr %10, align 1
  %207 = trunc i8 %206 to i1
  br i1 %207, label %208, label %218

208:                                              ; preds = %205
  %209 = load ptr, ptr %7, align 8
  store ptr %209, ptr %5, align 8
  %210 = load ptr, ptr %5, align 8
  %211 = getelementptr inbounds %struct._zval_struct, ptr %210, i32 0, i32 1
  %212 = load i8, ptr %211, align 8
  %213 = zext i8 %212 to i32
  %214 = icmp eq i32 %213, 1
  br i1 %214, label %215, label %218

215:                                              ; preds = %208
  %216 = load ptr, ptr %9, align 8
  store i8 1, ptr %216, align 1
  %217 = load ptr, ptr %8, align 8
  store i8 0, ptr %217, align 1
  br label %231

218:                                              ; preds = %208, %205
  %219 = load i8, ptr %12, align 1
  %220 = trunc i8 %219 to i1
  br i1 %220, label %221, label %226

221:                                              ; preds = %218
  %222 = load ptr, ptr %7, align 8
  %223 = load ptr, ptr %8, align 8
  %224 = load i32, ptr %11, align 4
  %225 = call zeroext i1 @zend_flf_parse_arg_bool_slow(ptr noundef %222, ptr noundef %223, i32 noundef %224) #11
  store i1 %225, ptr %6, align 1
  br label %233

226:                                              ; preds = %218
  %227 = load ptr, ptr %7, align 8
  %228 = load ptr, ptr %8, align 8
  %229 = load i32, ptr %11, align 4
  %230 = call zeroext i1 @zend_parse_arg_bool_slow(ptr noundef %227, ptr noundef %228, i32 noundef %229) #11
  store i1 %230, ptr %6, align 1
  br label %233

231:                                              ; preds = %215, %203
  br label %232

232:                                              ; preds = %231, %194
  store i1 true, ptr %6, align 1
  br label %233

233:                                              ; preds = %232, %226, %221
  %234 = load i1, ptr %6, align 1
  %235 = xor i1 %234, true
  %236 = xor i1 %235, true
  %237 = xor i1 %236, true
  %238 = zext i1 %237 to i32
  %239 = sext i32 %238 to i64
  %240 = icmp ne i64 %239, 0
  br i1 %240, label %241, label %242

241:                                              ; preds = %233
  store i32 2, ptr %42, align 4
  store i32 9, ptr %46, align 4
  br label %306

242:                                              ; preds = %233
  %243 = load i32, ptr %39, align 4
  %244 = add i32 %243, 1
  store i32 %244, ptr %39, align 4
  %245 = load i32, ptr %39, align 4
  %246 = load i32, ptr %36, align 4
  %247 = icmp ule i32 %245, %246
  br i1 %247, label %253, label %248

248:                                              ; preds = %242
  %249 = load i8, ptr %45, align 1
  %250 = trunc i8 %249 to i1
  %251 = zext i1 %250 to i32
  %252 = icmp eq i32 %251, 1
  br label %253

253:                                              ; preds = %248, %242
  %254 = phi i1 [ true, %242 ], [ %252, %248 ]
  call void @llvm.assume(i1 %254)
  %255 = load i32, ptr %39, align 4
  %256 = load i32, ptr %36, align 4
  %257 = icmp ugt i32 %255, %256
  br i1 %257, label %263, label %258

258:                                              ; preds = %253
  %259 = load i8, ptr %45, align 1
  %260 = trunc i8 %259 to i1
  %261 = zext i1 %260 to i32
  %262 = icmp eq i32 %261, 0
  br label %263

263:                                              ; preds = %258, %253
  %264 = phi i1 [ true, %253 ], [ %262, %258 ]
  call void @llvm.assume(i1 %264)
  %265 = load i8, ptr %45, align 1
  %266 = trunc i8 %265 to i1
  br i1 %266, label %267, label %278

267:                                              ; preds = %263
  %268 = load i32, ptr %39, align 4
  %269 = load i32, ptr %38, align 4
  %270 = icmp ugt i32 %268, %269
  %271 = xor i1 %270, true
  %272 = xor i1 %271, true
  %273 = zext i1 %272 to i32
  %274 = sext i32 %273 to i64
  %275 = icmp ne i64 %274, 0
  br i1 %275, label %276, label %277

276:                                              ; preds = %267
  br label %306

277:                                              ; preds = %267
  br label %278

278:                                              ; preds = %277, %263
  %279 = load ptr, ptr %40, align 8
  %280 = getelementptr inbounds %struct._zval_struct, ptr %279, i32 1
  store ptr %280, ptr %40, align 8
  %281 = load ptr, ptr %40, align 8
  store ptr %281, ptr %41, align 8
  %282 = load ptr, ptr %41, align 8
  store ptr %282, ptr %24, align 8
  store ptr %30, ptr %25, align 8
  store i8 0, ptr %26, align 1
  %283 = load i8, ptr %26, align 1
  %284 = trunc i8 %283 to i1
  br i1 %284, label %285, label %293

285:                                              ; preds = %278
  %286 = load ptr, ptr %24, align 8
  store ptr %286, ptr %19, align 8
  %287 = load ptr, ptr %19, align 8
  %288 = getelementptr inbounds %struct._zval_struct, ptr %287, i32 0, i32 1
  %289 = load i8, ptr %288, align 8
  %290 = zext i8 %289 to i32
  %291 = icmp eq i32 %290, 1
  br i1 %291, label %292, label %293

292:                                              ; preds = %285
  br label %295

293:                                              ; preds = %285, %278
  %294 = load ptr, ptr %24, align 8
  br label %295

295:                                              ; preds = %293, %292
  %296 = phi ptr [ null, %292 ], [ %294, %293 ]
  %297 = load ptr, ptr %25, align 8
  store ptr %296, ptr %297, align 8
  %298 = load i32, ptr %39, align 4
  %299 = load i32, ptr %37, align 4
  %300 = icmp eq i32 %298, %299
  br i1 %300, label %304, label %301

301:                                              ; preds = %295
  %302 = load i32, ptr %37, align 4
  %303 = icmp eq i32 %302, -1
  br label %304

304:                                              ; preds = %301, %295
  %305 = phi i1 [ true, %295 ], [ %303, %301 ]
  call void @llvm.assume(i1 %305)
  br label %306

306:                                              ; preds = %304, %276, %241, %168, %113, %74
  %307 = load i32, ptr %46, align 4
  %308 = icmp ne i32 %307, 0
  %309 = xor i1 %308, true
  %310 = xor i1 %309, true
  %311 = zext i1 %310 to i32
  %312 = sext i32 %311 to i64
  %313 = icmp ne i64 %312, 0
  br i1 %313, label %314, label %320

314:                                              ; preds = %306
  %315 = load i32, ptr %46, align 4
  %316 = load i32, ptr %39, align 4
  %317 = load ptr, ptr %43, align 8
  %318 = load i32, ptr %42, align 4
  %319 = load ptr, ptr %41, align 8
  call void @zend_wrong_parameter_error(i32 noundef %315, i32 noundef %316, ptr noundef %317, i32 noundef %318, ptr noundef %319)
  br label %395

320:                                              ; preds = %306
  br label %321

321:                                              ; preds = %320
  %322 = load i8, ptr %33, align 1
  %323 = trunc i8 %322 to i1
  br i1 %323, label %324, label %327

324:                                              ; preds = %321
  %325 = load i32, ptr %34, align 4
  %326 = or i32 %325, 1
  store i32 %326, ptr %34, align 4
  br label %327

327:                                              ; preds = %324, %321
  %328 = load ptr, ptr %27, align 8
  %329 = getelementptr inbounds %struct._zend_execute_data, ptr %328, i32 0, i32 4
  %330 = getelementptr inbounds %struct._zval_struct, ptr %329, i32 0, i32 2
  %331 = load i32, ptr %330, align 4
  %332 = icmp ugt i32 %331, 2
  br i1 %332, label %333, label %381

333:                                              ; preds = %327
  %334 = load ptr, ptr %29, align 8
  %335 = load i32, ptr %34, align 4
  %336 = call zeroext i1 @zend_is_callable_ex(ptr noundef %334, ptr noundef null, i32 noundef %335, ptr noundef %31, ptr noundef null, ptr noundef null)
  %337 = zext i1 %336 to i8
  store i8 %337, ptr %32, align 1
  br label %338

338:                                              ; preds = %333
  br label %339

339:                                              ; preds = %338
  %340 = load ptr, ptr %30, align 8
  store ptr %340, ptr %47, align 8
  %341 = load ptr, ptr %47, align 8
  %342 = getelementptr inbounds %struct._zval_struct, ptr %341, i32 0, i32 0
  %343 = load ptr, ptr %342, align 8
  store ptr %343, ptr %48, align 8
  %344 = load ptr, ptr %48, align 8
  %345 = getelementptr inbounds %struct._zend_reference, ptr %344, i32 0, i32 2
  %346 = load ptr, ptr %345, align 8
  %347 = icmp ne ptr %346, null
  %348 = xor i1 %347, true
  %349 = xor i1 %348, true
  %350 = zext i1 %349 to i32
  %351 = sext i32 %350 to i64
  %352 = icmp ne i64 %351, 0
  br i1 %352, label %353, label %357

353:                                              ; preds = %339
  %354 = load ptr, ptr %48, align 8
  %355 = load ptr, ptr %31, align 8
  %356 = call i32 @zend_try_assign_typed_ref_str(ptr noundef %354, ptr noundef %355)
  br label %379

357:                                              ; preds = %339
  %358 = load ptr, ptr %48, align 8
  %359 = getelementptr inbounds %struct._zend_reference, ptr %358, i32 0, i32 1
  store ptr %359, ptr %47, align 8
  %360 = load ptr, ptr %47, align 8
  call void @zval_ptr_dtor(ptr noundef %360)
  br label %361

361:                                              ; preds = %357
  %362 = load ptr, ptr %47, align 8
  store ptr %362, ptr %49, align 8
  %363 = load ptr, ptr %31, align 8
  store ptr %363, ptr %50, align 8
  %364 = load ptr, ptr %50, align 8
  %365 = load ptr, ptr %49, align 8
  %366 = getelementptr inbounds %struct._zval_struct, ptr %365, i32 0, i32 0
  store ptr %364, ptr %366, align 8
  %367 = load ptr, ptr %50, align 8
  %368 = getelementptr inbounds %struct._zend_string, ptr %367, i32 0, i32 0
  %369 = getelementptr inbounds %struct._zend_refcounted_h, ptr %368, i32 0, i32 1
  %370 = load i32, ptr %369, align 4
  store i32 %370, ptr %18, align 4
  %371 = load i32, ptr %18, align 4
  %372 = and i32 %371, 1008
  %373 = and i32 %372, 64
  %374 = icmp ne i32 %373, 0
  %375 = select i1 %374, i32 6, i32 262
  %376 = load ptr, ptr %49, align 8
  %377 = getelementptr inbounds %struct._zval_struct, ptr %376, i32 0, i32 1
  store i32 %375, ptr %377, align 8
  br label %378

378:                                              ; preds = %361
  br label %379

379:                                              ; preds = %378, %353
  br label %380

380:                                              ; preds = %379
  br label %386

381:                                              ; preds = %327
  %382 = load ptr, ptr %29, align 8
  %383 = load i32, ptr %34, align 4
  %384 = call zeroext i1 @zend_is_callable_ex(ptr noundef %382, ptr noundef null, i32 noundef %383, ptr noundef null, ptr noundef null, ptr noundef null)
  %385 = zext i1 %384 to i8
  store i8 %385, ptr %32, align 1
  br label %386

386:                                              ; preds = %381, %380
  br label %387

387:                                              ; preds = %386
  br label %388

388:                                              ; preds = %387
  %389 = load i8, ptr %32, align 1
  %390 = trunc i8 %389 to i1
  %391 = select i1 %390, i32 3, i32 2
  %392 = load ptr, ptr %28, align 8
  %393 = getelementptr inbounds %struct._zval_struct, ptr %392, i32 0, i32 1
  store i32 %391, ptr %393, align 8
  br label %394

394:                                              ; preds = %388
  br label %395

395:                                              ; preds = %394, %314
  ret void
}