; Function Attrs: nounwind uwtable
define hidden void @zif_is_callable(ptr noundef %0, ptr nocapture noundef writeonly %1) local_unnamed_addr #0 {
  %3 = alloca ptr, align 8
  %4 = alloca i8, align 1
  store i8 0, ptr %4, align 1
  %5 = getelementptr inbounds i8, ptr %0, i64 44
  %6 = load i32, ptr %5, align 4
  %7 = add i32 %6, -4
  %or.cond = icmp ult i32 %7, -3
  br i1 %or.cond, label %8, label %9

8:                                                ; preds = %2
  tail call void @zend_wrong_parameters_count_error(i32 noundef 1, i32 noundef 3) #8
  br label %19

9:                                                ; preds = %2
  %10 = getelementptr inbounds i8, ptr %0, i64 80
  %11 = icmp eq i32 %6, 1
  br i1 %11, label %.thread, label %12

12:                                               ; preds = %9
  %13 = getelementptr inbounds i8, ptr %0, i64 104
  %14 = load i8, ptr %13, align 8
  switch i8 %14, label %16 [
    i8 3, label %.critedge
    i8 2, label %15
  ]

15:                                               ; preds = %12
  br label %.critedge

16:                                               ; preds = %12
  %17 = getelementptr inbounds i8, ptr %0, i64 96
  %18 = call zeroext i1 @zend_parse_arg_bool_slow(ptr noundef nonnull %17, ptr noundef nonnull %4, i32 noundef 2) #8
  br i1 %18, label %._crit_edge, label %19

._crit_edge:                                      ; preds = %16
  %.pre.pre = load i8, ptr %4, align 1
  %.pre136.pre = load i32, ptr %5, align 4
  br label %20

.critedge:                                        ; preds = %12, %15
  %storemerge = phi i8 [ 0, %15 ], [ 1, %12 ]
  store i8 %storemerge, ptr %4, align 1
  br label %20

19:                                               ; preds = %8, %16
  %.0114 = phi ptr [ null, %8 ], [ %17, %16 ]
  %.0113 = phi i32 [ 0, %8 ], [ 2, %16 ]
  %.0111 = phi i32 [ 1, %8 ], [ 9, %16 ]
  call void @zend_wrong_parameter_error(i32 noundef %.0111, i32 noundef %.0113, ptr noundef null, i32 noundef %.0113, ptr noundef %.0114) #8
  br label %45

20:                                               ; preds = %.critedge, %._crit_edge
  %.pre136 = phi i32 [ %.pre136.pre, %._crit_edge ], [ %6, %.critedge ]
  %.pre = phi i8 [ %.pre.pre, %._crit_edge ], [ %storemerge, %.critedge ]
  %21 = and i8 %.pre, 1
  %22 = zext nneg i8 %21 to i32
  %23 = icmp ugt i32 %.pre136, 2
  br i1 %23, label %24, label %.thread

24:                                               ; preds = %20
  %25 = getelementptr inbounds i8, ptr %0, i64 112
  %26 = call zeroext i1 @zend_is_callable_ex(ptr noundef nonnull %10, ptr noundef null, i32 noundef %22, ptr noundef nonnull %3, ptr noundef null, ptr noundef null) #8
  %27 = load ptr, ptr %25, align 8
  %28 = getelementptr inbounds i8, ptr %27, i64 24
  %29 = load ptr, ptr %28, align 8
  %.not123 = icmp eq ptr %29, null
  br i1 %.not123, label %33, label %30

30:                                               ; preds = %24
  %31 = load ptr, ptr %3, align 8
  %32 = call i32 @zend_try_assign_typed_ref_str(ptr noundef nonnull %27, ptr noundef %31) #8
  br label %42

33:                                               ; preds = %24
  %34 = getelementptr inbounds i8, ptr %27, i64 8
  call void @zval_ptr_dtor(ptr noundef nonnull %34) #8
  %35 = load ptr, ptr %3, align 8
  store ptr %35, ptr %34, align 8
  %36 = getelementptr inbounds i8, ptr %35, i64 4
  %37 = load i32, ptr %36, align 4
  %38 = and i32 %37, 64
  %.not124 = icmp eq i32 %38, 0
  %39 = select i1 %.not124, i32 262, i32 6
  %40 = getelementptr inbounds i8, ptr %27, i64 16
  store i32 %39, ptr %40, align 8
  br label %42

.thread:                                          ; preds = %9, %20
  %spec.select141 = phi i32 [ %22, %20 ], [ 0, %9 ]
  %41 = call zeroext i1 @zend_is_callable_ex(ptr noundef nonnull %10, ptr noundef null, i32 noundef %spec.select141, ptr noundef null, ptr noundef null, ptr noundef null) #8
  br label %42

42:                                               ; preds = %33, %30, %.thread
  %.0109.in = phi i1 [ %26, %30 ], [ %26, %33 ], [ %41, %.thread ]
  %43 = select i1 %.0109.in, i32 3, i32 2
  %44 = getelementptr inbounds i8, ptr %1, i64 8
  store i32 %43, ptr %44, align 8
  br label %45

45:                                               ; preds = %42, %19
  ret void
}